target datalayout = "e-m:e-p270:32:32-p271:32:32-p272:64:64-i64:64-i128:128-f80:128-n8:16:32:64-S128"
target triple = "x86_64-pc-linux-gnu"

%struct.H5HL_t = type { i64, i64, i64, i64, i8, ptr, ptr, i64, i64, i64, ptr, i64, i64, ptr }

@H5HL_init_g = global i8 0, align 1
@H5_libterm_g = external global i8, align 1
@.str.2 = private unnamed_addr constant [98 x i8] c"generated/home/dtcxzyw/WorkSpace/Projects/compilers/llvm-opt-benchmark/bench/hdf5/hdf5/src/H5HL.c\00", align 1
@H5E_HEAP_g = external global i64, align 8
@__func__.H5HL_unprotect = private unnamed_addr constant [15 x i8] c"H5HL_unprotect\00", align 1
@H5E_CANTUNPIN_g = external global i64, align 8
@.str.16 = private unnamed_addr constant [38 x i8] c"unable to unpin local heap data block\00", align 1

; Function Attrs: nounwind uwtable
define i32 @H5HL_unprotect(ptr noundef %0) #0 {
  %2 = alloca ptr, align 8
  %3 = alloca i32, align 4
  %4 = alloca i8, align 1
  store ptr %0, ptr %2, align 8, !tbaa !12
  call void @llvm.lifetime.start.p0(i64 4, ptr %3) #6
  store i32 0, ptr %3, align 4, !tbaa !16
  call void @llvm.lifetime.start.p0(i64 1, ptr %4) #6
  store i8 0, ptr %4, align 1, !tbaa !18
  %5 = load i8, ptr @H5HL_init_g, align 1, !tbaa !18, !range !20, !noundef !21
  %6 = trunc i8 %5 to i1
  br i1 %6, label %11, label %7

7:                                                ; preds = %1
  %8 = load i8, ptr @H5_libterm_g, align 1, !tbaa !18, !range !20, !noundef !21
  %9 = trunc i8 %8 to i1
  %10 = xor i1 %9, true
  br label %11

11:                                               ; preds = %7, %1
  %12 = phi i1 [ false, %1 ], [ %10, %7 ]
  %13 = xor i1 %12, true
  %14 = xor i1 %13, true
  %15 = zext i1 %14 to i32
  %16 = sext i32 %15 to i64
  %17 = call i64 @llvm.expect.i64(i64 %16, i64 0)
  %18 = icmp ne i64 %17, 0
  br i1 %18, label %19, label %20

19:                                               ; preds = %11
  store i8 1, ptr @H5HL_init_g, align 1, !tbaa !18
  br label %20

20:                                               ; preds = %19, %11
  %21 = load i8, ptr @H5HL_init_g, align 1, !tbaa !18, !range !20, !noundef !21
  %22 = trunc i8 %21 to i1
  br i1 %22, label %27, label %23

23:                                               ; preds = %20
  %24 = load i8, ptr @H5_libterm_g, align 1, !tbaa !18, !range !20, !noundef !21
  %25 = trunc i8 %24 to i1
  %26 = xor i1 %25, true
  br label %27

27:                                               ; preds = %23, %20
  %28 = phi i1 [ true, %20 ], [ %26, %23 ]
  %29 = xor i1 %28, true
  %30 = xor i1 %29, true
  %31 = zext i1 %30 to i32
  %32 = sext i32 %31 to i64
  %33 = call i64 @llvm.expect.i64(i64 %32, i64 1)
  %34 = icmp ne i64 %33, 0
  br i1 %34, label %35, label %104

35:                                               ; preds = %27
  %36 = load ptr, ptr %2, align 8, !tbaa !12
  %37 = getelementptr inbounds nuw %struct.H5HL_t, ptr %36, i32 0, i32 1
  %38 = load i64, ptr %37, align 8, !tbaa !53
  %39 = add i64 %38, -1
  store i64 %39, ptr %37, align 8, !tbaa !53
  %40 = load ptr, ptr %2, align 8, !tbaa !12
  %41 = getelementptr inbounds nuw %struct.H5HL_t, ptr %40, i32 0, i32 1
  %42 = load i64, ptr %41, align 8, !tbaa !53
  %43 = icmp eq i64 %42, 0
  br i1 %43, label %44, label %102

44:                                               ; preds = %35
  %45 = load ptr, ptr %2, align 8, !tbaa !12
  %46 = getelementptr inbounds nuw %struct.H5HL_t, ptr %45, i32 0, i32 4
  %47 = load i8, ptr %46, align 8, !tbaa !28, !range !20, !noundef !21
  %48 = trunc i8 %47 to i1
  br i1 %48, label %49, label %75

49:                                               ; preds = %44
  %50 = load ptr, ptr %2, align 8, !tbaa !12
  %51 = getelementptr inbounds nuw %struct.H5HL_t, ptr %50, i32 0, i32 6
  %52 = load ptr, ptr %51, align 8, !tbaa !55
  %53 = call i32 @H5AC_unpin_entry(ptr noundef %52)
  %54 = icmp eq i32 -1, %53
  br i1 %54, label %55, label %74

55:                                               ; preds = %49
  br label %56

56:                                               ; preds = %55
  br label %57

57:                                               ; preds = %56
  br label %58

58:                                               ; preds = %57
  %59 = load i64, ptr @H5E_HEAP_g, align 8, !tbaa !8
  %60 = load i64, ptr @H5E_CANTUNPIN_g, align 8, !tbaa !8
  %61 = call i32 (ptr, ptr, i32, i64, i64, ptr, ...) @H5E_printf_stack(ptr noundef @.str.2, ptr noundef @__func__.H5HL_unprotect, i32 noundef 428, i64 noundef %59, i64 noundef %60, ptr noundef @.str.16)
  br label %62

62:                                               ; preds = %58
  br label %63

63:                                               ; preds = %62
  store i8 1, ptr %4, align 1, !tbaa !18
  %64 = load i8, ptr %4, align 1, !tbaa !18, !range !20, !noundef !21
  %65 = trunc i8 %64 to i1
  %66 = zext i1 %65 to i8
  store i8 %66, ptr %4, align 1, !tbaa !18
  br label %67

67:                                               ; preds = %63
  br label %68

68:                                               ; preds = %67
  br label %69

69:                                               ; preds = %68
  store i32 -1, ptr %3, align 4, !tbaa !16
  br label %103

70:                                               ; No predecessors!
  br label %71

71:                                               ; preds = %70
  br label %72

72:                                               ; preds = %71
  br label %73

73:                                               ; preds = %72
  br label %74

74:                                               ; preds = %73, %49
  br label %101

75:                                               ; preds = %44
  %76 = load ptr, ptr %2, align 8, !tbaa !12
  %77 = getelementptr inbounds nuw %struct.H5HL_t, ptr %76, i32 0, i32 10
  %78 = load ptr, ptr %77, align 8, !tbaa !56
  %79 = call i32 @H5AC_unpin_entry(ptr noundef %78)
  %80 = icmp eq i32 -1, %79
  br i1 %80, label %81, label %100

81:                                               ; preds = %75
  br label %82

82:                                               ; preds = %81
  br label %83

83:                                               ; preds = %82
  br label %84

84:                                               ; preds = %83
  %85 = load i64, ptr @H5E_HEAP_g, align 8, !tbaa !8
  %86 = load i64, ptr @H5E_CANTUNPIN_g, align 8, !tbaa !8
  %87 = call i32 (ptr, ptr, i32, i64, i64, ptr, ...) @H5E_printf_stack(ptr noundef @.str.2, ptr noundef @__func__.H5HL_unprotect, i32 noundef 437, i64 noundef %85, i64 noundef %86, ptr noundef @.str.16)
  br label %88

88:                                               ; preds = %84
  br label %89

89:                                               ; preds = %88
  store i8 1, ptr %4, align 1, !tbaa !18
  %90 = load i8, ptr %4, align 1, !tbaa !18, !range !20, !noundef !21
  %91 = trunc i8 %90 to i1
  %92 = zext i1 %91 to i8
  store i8 %92, ptr %4, align 1, !tbaa !18
  br label %93

93:                                               ; preds = %89
  br label %94

94:                                               ; preds = %93
  br label %95

95:                                               ; preds = %94
  store i32 -1, ptr %3, align 4, !tbaa !16
  br label %103

96:                                               ; No predecessors!
  br label %97

97:                                               ; preds = %96
  br label %98

98:                                               ; preds = %97
  br label %99

99:                                               ; preds = %98
  br label %100

100:                                              ; preds = %99, %75
  br label %101

101:                                              ; preds = %100, %74
  br label %102

102:                                              ; preds = %101, %35
  br label %103

103:                                              ; preds = %102, %95, %69
  br label %104

104:                                              ; preds = %103, %27
  %105 = load i32, ptr %3, align 4, !tbaa !16
  call void @llvm.lifetime.end.p0(i64 1, ptr %4) #6
  call void @llvm.lifetime.end.p0(i64 4, ptr %3) #6
  ret i32 %105
}