; Function Attrs: nounwind uwtable
define range(i32 -1, 1) i32 @H5HL_unprotect(ptr noundef captures(none) %0) local_unnamed_addr #0 {
  %2 = load i8, ptr @H5HL_init_g, align 1, !tbaa !3, !range !7, !noundef !8
  %3 = trunc nuw i8 %2 to i1
  %4 = load i8, ptr @H5_libterm_g, align 1, !range !7
  %5 = trunc nuw i8 %4 to i1
  %6 = select i1 %3, i1 true, i1 %5
  br i1 %6, label %7, label %.thread, !prof !9

.thread:                                          ; preds = %1
  store i8 1, ptr @H5HL_init_g, align 1, !tbaa !3
  br label %10

7:                                                ; preds = %1
  %8 = xor i1 %5, true
  %9 = select i1 %3, i1 true, i1 %8
  br i1 %9, label %10, label %32, !prof !10

10:                                               ; preds = %.thread, %7
  %11 = getelementptr inbounds nuw i8, ptr %0, i64 8
  %12 = load i64, ptr %11, align 8, !tbaa !46
  %13 = add i64 %12, -1
  store i64 %13, ptr %11, align 8, !tbaa !46
  %14 = icmp eq i64 %13, 0
  br i1 %14, label %15, label %32

15:                                               ; preds = %10
  %16 = getelementptr inbounds nuw i8, ptr %0, i64 32
  %17 = load i8, ptr %16, align 8, !tbaa !21, !range !7, !noundef !8
  %18 = trunc nuw i8 %17 to i1
  br i1 %18, label %19, label %24

19:                                               ; preds = %15
  %20 = getelementptr inbounds nuw i8, ptr %0, i64 48
  %21 = load ptr, ptr %20, align 8, !tbaa !47
  %22 = tail call i32 @H5AC_unpin_entry(ptr noundef %21) #7
  %23 = icmp eq i32 %22, -1
  br i1 %23, label %.sink.split, label %32

24:                                               ; preds = %15
  %25 = getelementptr inbounds nuw i8, ptr %0, i64 80
  %26 = load ptr, ptr %25, align 8, !tbaa !48
  %27 = tail call i32 @H5AC_unpin_entry(ptr noundef %26) #7
  %28 = icmp eq i32 %27, -1
  br i1 %28, label %.sink.split, label %32

.sink.split:                                      ; preds = %24, %19
  %.sink = phi i32 [ 428, %19 ], [ 437, %24 ]
  %29 = load i64, ptr @H5E_HEAP_g, align 8, !tbaa !20
  %30 = load i64, ptr @H5E_CANTUNPIN_g, align 8, !tbaa !20
  %31 = tail call i32 (ptr, ptr, i32, i64, i64, ptr, ...) @H5E_printf_stack(ptr noundef nonnull @.str.2, ptr noundef nonnull @__func__.H5HL_unprotect, i32 noundef %.sink, i64 noundef %29, i64 noundef %30, ptr noundef nonnull @.str.16) #7
  br label %32

32:                                               ; preds = %.sink.split, %19, %24, %10, %7
  %.0 = phi i32 [ 0, %19 ], [ 0, %24 ], [ 0, %10 ], [ 0, %7 ], [ -1, %.sink.split ]
  ret i32 %.0
}